; Function Attrs: nounwind uwtable
define noundef zeroext i1 @duckdb_je_background_threads_disable(ptr noundef %0) local_unnamed_addr #0 {
  %2 = load ptr, ptr @duckdb_je_background_thread_info, align 8, !tbaa !17
  %3 = tail call fastcc zeroext i1 @background_threads_disable_single(ptr noundef %0, ptr noundef %2)
  br i1 %3, label %.loopexit, label %4

4:                                                ; preds = %1
  %5 = tail call i32 @duckdb_je_narenas_total_get() #12
  %.not13 = icmp eq i32 %5, 0
  br i1 %.not13, label %.loopexit, label %.lr.ph.preheader

.lr.ph.preheader:                                 ; preds = %4
  %wide.trip.count = zext i32 %5 to i64
  br label %.lr.ph

.lr.ph:                                           ; preds = %.lr.ph.preheader, %10
  %indvars.iv = phi i64 [ 0, %.lr.ph.preheader ], [ %indvars.iv.next, %10 ]
  %6 = getelementptr inbounds nuw [0 x %struct.atomic_p_t], ptr @duckdb_je_arenas, i64 0, i64 %indvars.iv
  %7 = load atomic i64, ptr %6 acquire, align 8
  %.not = icmp eq i64 %7, 0
  br i1 %.not, label %10, label %8

8:                                                ; preds = %.lr.ph
  %.0.i.i = inttoptr i64 %7 to ptr
  %9 = getelementptr inbounds nuw i8, ptr %.0.i.i, i64 10664
  tail call void @duckdb_je_pa_shard_set_deferral_allowed(ptr noundef %0, ptr noundef nonnull %9, i1 noundef zeroext false) #12
  br label %10

10:                                               ; preds = %8, %.lr.ph
  %indvars.iv.next = add nuw nsw i64 %indvars.iv, 1
  %exitcond.not = icmp eq i64 %indvars.iv.next, %wide.trip.count
  br i1 %exitcond.not, label %.loopexit, label %.lr.ph

.loopexit:                                        ; preds = %10, %4, %1
  ret i1 %3
}